target datalayout = "e-m:e-p270:32:32-p271:32:32-p272:64:64-i64:64-i128:128-f80:128-n8:16:32:64-S128"
target triple = "x86_64-pc-linux-gnu"

%struct.keyword_entry = type { ptr, [75 x i8] }

@.str.15 = private unnamed_addr constant [6 x i8] c"%s.%s\00", align 1

; Function Attrs: inlinehint nounwind uwtable
define internal void @list_config_item(ptr noundef %0, ptr noundef %1, ptr noundef %2) #2 {
  %4 = alloca ptr, align 8
  %5 = alloca ptr, align 8
  %6 = alloca ptr, align 8
  store ptr %0, ptr %4, align 8, !tbaa !4
  store ptr %1, ptr %5, align 8, !tbaa !9
  store ptr %2, ptr %6, align 8, !tbaa !9
  %7 = load ptr, ptr %4, align 8, !tbaa !4
  %8 = load ptr, ptr %5, align 8, !tbaa !9
  %9 = load ptr, ptr %6, align 8, !tbaa !9
  %10 = call ptr (ptr, ...) @xstrfmt(ptr noundef @.str.15, ptr noundef %8, ptr noundef %9)
  %11 = call ptr @string_list_append_nodup(ptr noundef %7, ptr noundef %10)
  ret void
}

; Function Attrs: nounwind uwtable
define dso_local void @list_config_color_sideband_slots(ptr noundef %0, ptr noundef %1) #0 {
  %3 = alloca ptr, align 8
  %4 = alloca ptr, align 8
  %5 = alloca i32, align 4
  store ptr %0, ptr %3, align 8, !tbaa !4
  store ptr %1, ptr %4, align 8, !tbaa !9
  call void @llvm.lifetime.start.p0(i64 4, ptr %5) #8
  store i32 0, ptr %5, align 4, !tbaa !11
  br label %6

6:                                                ; preds = %18, %2
  %7 = load i32, ptr %5, align 4, !tbaa !11
  %8 = sext i32 %7 to i64
  %9 = icmp ult i64 %8, 4
  br i1 %9, label %10, label %21

10:                                               ; preds = %6
  %11 = load ptr, ptr %3, align 8, !tbaa !4
  %12 = load ptr, ptr %4, align 8, !tbaa !9
  %13 = load i32, ptr %5, align 4, !tbaa !11
  %14 = sext i32 %13 to i64
  %15 = getelementptr inbounds [4 x %struct.keyword_entry], ptr @keywords, i64 0, i64 %14
  %16 = getelementptr inbounds nuw %struct.keyword_entry, ptr %15, i32 0, i32 0
  %17 = load ptr, ptr %16, align 8, !tbaa !13
  call void @list_config_item(ptr noundef %11, ptr noundef %12, ptr noundef %17)
  br label %18

18:                                               ; preds = %10
  %19 = load i32, ptr %5, align 4, !tbaa !11
  %20 = add nsw i32 %19, 1
  store i32 %20, ptr %5, align 4, !tbaa !11
  br label %6, !llvm.loop !15

21:                                               ; preds = %6
  call void @llvm.lifetime.end.p0(i64 4, ptr %5) #8
  ret void
}